target datalayout = "e-m:e-p270:32:32-p271:32:32-p272:64:64-i64:64-i128:128-f80:128-n8:16:32:64-S128"
target triple = "x86_64-pc-linux-gnu"

%struct.evthread_lock_callbacks = type { i32, i32, ptr, ptr, ptr, ptr }
%struct.evdns_server_port = type { i32, i32, i8, i8, ptr, ptr, %struct.event, ptr, ptr, ptr, %struct.client_list, i32, i32, %struct.timeval, ptr }
%struct.event = type { %struct.event_callback, %union.anon.0, i32, i16, i16, ptr, %union.anon.2, %struct.timeval }
%struct.event_callback = type { %struct.anon, i16, i8, i8, %union.anon, ptr }
%struct.anon = type { ptr, ptr }
%union.anon = type { ptr }
%union.anon.0 = type { %struct.anon.1 }
%struct.anon.1 = type { ptr, ptr }
%union.anon.2 = type { %struct.anon.3 }
%struct.anon.3 = type { %struct.anon.4, %struct.timeval }
%struct.anon.4 = type { ptr, ptr }
%struct.client_list = type { ptr }
%struct.timeval = type { i64, i64 }
%struct.sockaddr_storage = type { i16, [118 x i8], i64 }
%union.__SOCKADDR_ARG = type { ptr }

@evthread_lock_fns_ = external global %struct.evthread_lock_callbacks, align 8
@evthread_lock_debugging_enabled_ = external global i32, align 4
@.str.34 = private unnamed_addr constant [37 x i8] c"Error %s (%d) while reading request.\00", align 1

; Function Attrs: nounwind uwtable
define internal void @server_udp_port_read(ptr noundef %0) #0 {
  %2 = alloca ptr, align 8
  %3 = alloca [1500 x i8], align 16
  %4 = alloca %struct.sockaddr_storage, align 8
  %5 = alloca i32, align 4
  %6 = alloca i32, align 4
  %7 = alloca %union.__SOCKADDR_ARG, align 8
  %8 = alloca i32, align 4
  %9 = alloca i32, align 4
  store ptr %0, ptr %2, align 8
  call void @llvm.lifetime.start.p0(i64 1500, ptr %3) #10
  call void @llvm.lifetime.start.p0(i64 128, ptr %4) #10
  call void @llvm.lifetime.start.p0(i64 4, ptr %5) #10
  call void @llvm.lifetime.start.p0(i64 4, ptr %6) #10
  br label %10

10:                                               ; preds = %1
  %11 = load ptr, ptr %2, align 8
  %12 = getelementptr inbounds nuw %struct.evdns_server_port, ptr %11, i32 0, i32 14
  %13 = load ptr, ptr %12, align 8
  %14 = icmp ne ptr %13, null
  br i1 %14, label %15, label %22

15:                                               ; preds = %10
  %16 = load i32, ptr @evthread_lock_debugging_enabled_, align 4
  %17 = icmp ne i32 %16, 0
  br i1 %17, label %18, label %22

18:                                               ; preds = %15
  br label %19

19:                                               ; preds = %18
  br label %20

20:                                               ; preds = %19
  br label %21

21:                                               ; preds = %20
  br label %22

22:                                               ; preds = %21, %15, %10
  br label %23

23:                                               ; preds = %22
  br label %24

24:                                               ; preds = %23
  br label %25

25:                                               ; preds = %50, %24
  store i32 128, ptr %5, align 4
  %26 = load ptr, ptr %2, align 8
  %27 = getelementptr inbounds nuw %struct.evdns_server_port, ptr %26, i32 0, i32 0
  %28 = load i32, ptr %27, align 8
  %29 = getelementptr inbounds [1500 x i8], ptr %3, i64 0, i64 0
  store ptr %4, ptr %7, align 8
  %30 = getelementptr inbounds nuw %union.__SOCKADDR_ARG, ptr %7, i32 0, i32 0
  %31 = load ptr, ptr %30, align 8
  %32 = call i64 @recvfrom(i32 noundef %28, ptr noundef %29, i64 noundef 1500, i32 noundef 0, ptr %31, ptr noundef %5)
  %33 = trunc i64 %32 to i32
  store i32 %33, ptr %6, align 4
  %34 = load i32, ptr %6, align 4
  %35 = icmp slt i32 %34, 0
  br i1 %35, label %36, label %50

36:                                               ; preds = %25
  call void @llvm.lifetime.start.p0(i64 4, ptr %8) #10
  %37 = call ptr @__errno_location() #11
  %38 = load i32, ptr %37, align 4
  store i32 %38, ptr %8, align 4
  %39 = load i32, ptr %8, align 4
  %40 = icmp eq i32 %39, 4
  br i1 %40, label %44, label %41

41:                                               ; preds = %36
  %42 = load i32, ptr %8, align 4
  %43 = icmp eq i32 %42, 11
  br i1 %43, label %44, label %45

44:                                               ; preds = %41, %36
  store i32 1, ptr %9, align 4
  br label %49

45:                                               ; preds = %41
  %46 = load i32, ptr %8, align 4
  %47 = call ptr @strerror(i32 noundef %46) #10
  %48 = load i32, ptr %8, align 4
  call void (i32, ptr, ...) @evdns_log_(i32 noundef 2, ptr noundef @.str.34, ptr noundef %47, i32 noundef %48)
  store i32 1, ptr %9, align 4
  br label %49

49:                                               ; preds = %45, %44
  call void @llvm.lifetime.end.p0(i64 4, ptr %8) #10
  call void @llvm.lifetime.end.p0(i64 4, ptr %6) #10
  call void @llvm.lifetime.end.p0(i64 4, ptr %5) #10
  call void @llvm.lifetime.end.p0(i64 128, ptr %4) #10
  call void @llvm.lifetime.end.p0(i64 1500, ptr %3) #10
  ret void

50:                                               ; preds = %25
  %51 = getelementptr inbounds [1500 x i8], ptr %3, i64 0, i64 0
  %52 = load i32, ptr %6, align 4
  %53 = load ptr, ptr %2, align 8
  %54 = load i32, ptr %5, align 4
  %55 = call i32 @request_parse(ptr noundef %51, i32 noundef %52, ptr noundef %53, ptr noundef %4, i32 noundef %54, ptr noundef null)
  br label %25
}

; Function Attrs: nounwind uwtable
define internal void @server_port_ready_callback(i32 noundef %0, i16 noundef signext %1, ptr noundef %2) #0 {
  %4 = alloca i32, align 4
  %5 = alloca i16, align 2
  %6 = alloca ptr, align 8
  %7 = alloca ptr, align 8
  store i32 %0, ptr %4, align 4
  store i16 %1, ptr %5, align 2
  store ptr %2, ptr %6, align 8
  call void @llvm.lifetime.start.p0(i64 8, ptr %7) #10
  %8 = load ptr, ptr %6, align 8
  store ptr %8, ptr %7, align 8
  br label %9

9:                                                ; preds = %3
  %10 = load ptr, ptr %7, align 8
  %11 = getelementptr inbounds nuw %struct.evdns_server_port, ptr %10, i32 0, i32 14
  %12 = load ptr, ptr %11, align 8
  %13 = icmp ne ptr %12, null
  br i1 %13, label %14, label %20

14:                                               ; preds = %9
  %15 = load ptr, ptr getelementptr inbounds nuw (%struct.evthread_lock_callbacks, ptr @evthread_lock_fns_, i32 0, i32 4), align 8
  %16 = load ptr, ptr %7, align 8
  %17 = getelementptr inbounds nuw %struct.evdns_server_port, ptr %16, i32 0, i32 14
  %18 = load ptr, ptr %17, align 8
  %19 = call i32 %15(i32 noundef 0, ptr noundef %18)
  br label %20

20:                                               ; preds = %14, %9
  br label %21

21:                                               ; preds = %20
  br label %22

22:                                               ; preds = %21
  %23 = load i16, ptr %5, align 2
  %24 = sext i16 %23 to i32
  %25 = and i32 %24, 4
  %26 = icmp ne i32 %25, 0
  br i1 %26, label %27, label %31

27:                                               ; preds = %22
  %28 = load ptr, ptr %7, align 8
  %29 = getelementptr inbounds nuw %struct.evdns_server_port, ptr %28, i32 0, i32 2
  store i8 0, ptr %29, align 8
  %30 = load ptr, ptr %7, align 8
  call void @server_port_flush(ptr noundef %30)
  br label %31

31:                                               ; preds = %27, %22
  %32 = load i16, ptr %5, align 2
  %33 = sext i16 %32 to i32
  %34 = and i32 %33, 2
  %35 = icmp ne i32 %34, 0
  br i1 %35, label %36, label %38

36:                                               ; preds = %31
  %37 = load ptr, ptr %7, align 8
  call void @server_udp_port_read(ptr noundef %37)
  br label %38

38:                                               ; preds = %36, %31
  br label %39

39:                                               ; preds = %38
  %40 = load ptr, ptr %7, align 8
  %41 = getelementptr inbounds nuw %struct.evdns_server_port, ptr %40, i32 0, i32 14
  %42 = load ptr, ptr %41, align 8
  %43 = icmp ne ptr %42, null
  br i1 %43, label %44, label %50

44:                                               ; preds = %39
  %45 = load ptr, ptr getelementptr inbounds nuw (%struct.evthread_lock_callbacks, ptr @evthread_lock_fns_, i32 0, i32 5), align 8
  %46 = load ptr, ptr %7, align 8
  %47 = getelementptr inbounds nuw %struct.evdns_server_port, ptr %46, i32 0, i32 14
  %48 = load ptr, ptr %47, align 8
  %49 = call i32 %45(i32 noundef 0, ptr noundef %48)
  br label %50

50:                                               ; preds = %44, %39
  br label %51

51:                                               ; preds = %50
  br label %52

52:                                               ; preds = %51
  call void @llvm.lifetime.end.p0(i64 8, ptr %7) #10
  ret void
}