; Function Attrs: nounwind uwtable
define internal void @server_port_ready_callback(i32 %0, i16 noundef signext %1, ptr noundef %2) #2 {
  %4 = alloca [1500 x i8], align 16
  %5 = alloca %struct.sockaddr_storage, align 8
  %6 = alloca i32, align 4
  %7 = getelementptr inbounds nuw i8, ptr %2, i64 208
  %8 = load ptr, ptr %7, align 8
  %.not = icmp eq ptr %8, null
  br i1 %.not, label %12, label %9

9:                                                ; preds = %3
  %10 = load ptr, ptr getelementptr inbounds nuw (i8, ptr @evthread_lock_fns_, i64 24), align 8
  %11 = tail call i32 %10(i32 noundef 0, ptr noundef nonnull %8) #21
  br label %12

12:                                               ; preds = %9, %3
  %13 = and i16 %1, 4
  %.not10 = icmp eq i16 %13, 0
  br i1 %.not10, label %16, label %14

14:                                               ; preds = %12
  %15 = getelementptr inbounds nuw i8, ptr %2, i64 8
  store i8 0, ptr %15, align 8
  tail call fastcc void @server_port_flush(ptr noundef nonnull %2)
  br label %16

16:                                               ; preds = %14, %12
  %17 = and i16 %1, 2
  %.not11 = icmp eq i16 %17, 0
  br i1 %.not11, label %33, label %18

18:                                               ; preds = %16
  call void @llvm.lifetime.start.p0(i64 1500, ptr nonnull %4) #21
  call void @llvm.lifetime.start.p0(i64 128, ptr nonnull %5) #21
  call void @llvm.lifetime.start.p0(i64 4, ptr nonnull %6) #21
  store i32 128, ptr %6, align 4
  %19 = load i32, ptr %2, align 8
  %20 = call i64 @recvfrom(i32 noundef %19, ptr noundef nonnull %4, i64 noundef 1500, i32 noundef 0, ptr nonnull %5, ptr noundef nonnull %6) #21
  %21 = trunc i64 %20 to i32
  %22 = icmp slt i32 %21, 0
  br i1 %22, label %._crit_edge.i, label %.lr.ph.i

._crit_edge.i:                                    ; preds = %.lr.ph.i, %18
  %23 = tail call ptr @__errno_location() #22
  %24 = load i32, ptr %23, align 4
  switch i32 %24, label %25 [
    i32 11, label %server_udp_port_read.exit
    i32 4, label %server_udp_port_read.exit
  ]

25:                                               ; preds = %._crit_edge.i
  %26 = call ptr @strerror(i32 noundef %24) #21
  call void (i32, ptr, ...) @evdns_log_(i32 noundef 2, ptr noundef nonnull @.str.34, ptr noundef %26, i32 noundef %24)
  br label %server_udp_port_read.exit

.lr.ph.i:                                         ; preds = %18, %.lr.ph.i
  %27 = phi i32 [ %31, %.lr.ph.i ], [ %21, %18 ]
  %28 = load i32, ptr %6, align 4
  call fastcc void @request_parse(ptr noundef %4, i32 noundef %27, ptr noundef nonnull %2, ptr noundef nonnull %5, i32 noundef %28, ptr noundef null)
  store i32 128, ptr %6, align 4
  %29 = load i32, ptr %2, align 8
  %30 = call i64 @recvfrom(i32 noundef %29, ptr noundef nonnull %4, i64 noundef 1500, i32 noundef 0, ptr nonnull %5, ptr noundef nonnull %6) #21
  %31 = trunc i64 %30 to i32
  %32 = icmp slt i32 %31, 0
  br i1 %32, label %._crit_edge.i, label %.lr.ph.i

server_udp_port_read.exit:                        ; preds = %._crit_edge.i, %._crit_edge.i, %25
  call void @llvm.lifetime.end.p0(i64 4, ptr nonnull %6) #21
  call void @llvm.lifetime.end.p0(i64 128, ptr nonnull %5) #21
  call void @llvm.lifetime.end.p0(i64 1500, ptr nonnull %4) #21
  br label %33

33:                                               ; preds = %16, %server_udp_port_read.exit
  %34 = load ptr, ptr %7, align 8
  %.not12 = icmp eq ptr %34, null
  br i1 %.not12, label %38, label %35

35:                                               ; preds = %33
  %36 = load ptr, ptr getelementptr inbounds nuw (i8, ptr @evthread_lock_fns_, i64 32), align 8
  %37 = call i32 %36(i32 noundef 0, ptr noundef nonnull %34) #21
  br label %38

38:                                               ; preds = %35, %33
  ret void
}